Certificate:
    Data:
        Version: 3 (0x2)
        Serial Number:
            12:9c:c2:7f:2e:5e:91:1b:ae:74:79:b9:e8:c4:2f:8d
        Signature Algorithm: sha256WithRSAEncryption
        Issuer: CN=gdf-dev-client-vpn-ca
        Validity
            Not Before: Feb 12 16:42:05 2026 GMT
            Not After : May 17 16:42:05 2028 GMT
        Subject: CN=gdf-dev-client-vpn-client
        Subject Public Key Info:
            Public Key Algorithm: rsaEncryption
                Public-Key: (2048 bit)
                Modulus:
                    00:c5:bf:70:5a:be:09:0a:b4:93:ae:db:ff:59:0f:
                    c3:a4:95:de:a2:9c:fa:c9:f4:dd:fe:82:0a:6b:97:
                    13:88:ee:39:c1:e9:4a:22:39:a2:ef:f0:66:0f:71:
                    93:f0:75:4a:50:93:a6:56:d6:24:b9:0e:65:13:e0:
                    8f:7a:9b:8b:50:6e:f6:ec:2c:78:68:e6:f3:0d:d6:
                    3e:e8:8b:04:b6:1a:f4:99:65:49:38:d4:2d:8c:50:
                    88:35:cb:4a:f1:0f:03:20:0a:73:f5:73:74:0e:3e:
                    2e:58:4b:a2:78:1d:ed:8a:78:40:2d:ae:4e:1b:9d:
                    0a:13:a4:51:aa:1b:e8:15:ed:9e:c8:f9:0a:46:49:
                    2e:80:a6:52:9c:64:11:fd:af:70:32:aa:e5:fc:f0:
                    ec:c6:17:a7:74:f4:a2:05:56:c1:1b:20:a4:71:29:
                    cb:dc:e0:97:83:a5:cd:f1:6b:d9:ff:1b:db:7f:11:
                    f5:84:74:e6:8d:67:6e:6d:38:df:63:de:a3:01:4a:
                    70:03:a3:e4:9d:5b:e0:9a:a4:de:5b:cb:18:02:38:
                    55:fb:61:1c:f3:c5:15:43:e1:a8:ad:00:4b:23:bf:
                    c8:95:cb:bd:58:cd:62:21:ac:7a:ea:53:71:8f:b7:
                    88:6b:32:63:eb:a4:19:82:ea:a9:a7:5d:f8:07:f7:
                    b1:cd
                Exponent: 65537 (0x10001)
        X509v3 extensions:
            X509v3 Basic Constraints: 
                CA:FALSE
            X509v3 Subject Key Identifier: 
                C3:25:A5:72:18:E5:42:01:C4:DE:15:08:7D:3B:AD:C0:A0:A6:A5:2C
            X509v3 Authority Key Identifier: 
                keyid:4C:51:CD:3D:64:4A:46:4C:DF:38:7E:E3:C5:97:21:95:57:B1:81:64
                DirName:/CN=gdf-dev-client-vpn-ca
                serial:38:12:AC:F8:FF:97:43:6A:32:4D:AE:8B:05:59:00:FD:7C:A4:F3:DB
            X509v3 Extended Key Usage: 
                TLS Web Client Authentication
            X509v3 Key Usage: 
                Digital Signature
    Signature Algorithm: sha256WithRSAEncryption
    Signature Value:
        2d:bc:60:c5:58:7c:3f:f1:34:9a:22:db:b3:2d:bc:74:5f:01:
        28:5e:60:08:64:b0:1c:d0:51:4a:c1:1c:e1:d0:cc:1f:0a:1f:
        b9:86:a2:67:10:9a:b7:f5:03:c8:b1:59:f1:77:4a:39:78:13:
        49:d8:2e:ef:e5:58:43:86:08:3b:33:cc:9f:1f:eb:55:66:3e:
        66:fe:11:54:8b:41:42:3d:34:22:f2:5e:a3:3f:b4:ee:9d:d4:
        42:fd:24:9d:06:9a:17:7d:6f:be:4f:d0:a1:a6:3a:d9:28:52:
        6a:75:cb:e7:41:c0:e2:97:cb:1b:f8:8b:8a:3b:b5:0c:86:22:
        31:16:c2:5c:5f:16:3a:0b:c7:79:75:08:a2:cc:00:d6:53:e2:
        5f:25:12:25:60:3b:67:b2:20:e6:12:39:61:7f:3a:25:21:19:
        bf:35:d0:a2:af:0b:d3:9a:b6:01:d7:08:ec:ab:13:f1:d5:68:
        0e:05:b1:30:ca:1d:51:2e:03:c5:2d:73:86:53:0a:56:5a:5c:
        0f:17:f2:1a:4e:b3:f8:22:6b:3c:95:9b:12:04:cd:ac:46:77:
        8d:4c:20:34:2a:61:91:13:87:96:4e:5b:fe:94:43:7a:ff:a5:
        06:40:bd:e2:f6:87:66:1a:2f:ae:5e:5b:d4:26:ce:56:bd:e9:
        a9:45:86:fd
-----BEGIN CERTIFICATE-----
MIIDezCCAmOgAwIBAgIQEpzCfy5ekRuudHm56MQvjTANBgkqhkiG9w0BAQsFADAg
MR4wHAYDVQQDDBVnZGYtZGV2LWNsaWVudC12cG4tY2EwHhcNMjYwMjEyMTY0MjA1
WhcNMjgwNTE3MTY0MjA1WjAkMSIwIAYDVQQDDBlnZGYtZGV2LWNsaWVudC12cG4t
Y2xpZW50MIIBIjANBgkqhkiG9w0BAQEFAAOCAQ8AMIIBCgKCAQEAxb9wWr4JCrST
rtv/WQ/DpJXeopz6yfTd/oIKa5cTiO45welKIjmi7/BmD3GT8HVKUJOmVtYkuQ5l
E+CPepuLUG727Cx4aObzDdY+6IsEthr0mWVJONQtjFCINctK8Q8DIApz9XN0Dj4u
WEuieB3tinhALa5OG50KE6RRqhvoFe2eyPkKRkkugKZSnGQR/a9wMqrl/PDsxhen
dPSiBVbBGyCkcSnL3OCXg6XN8WvZ/xvbfxH1hHTmjWdubTjfY96jAUpwA6PknVvg
mqTeW8sYAjhV+2Ec88UVQ+GorQBLI7/Ilcu9WM1iIax66lNxj7eIazJj66QZguqp
p134B/exzQIDAQABo4GsMIGpMAkGA1UdEwQCMAAwHQYDVR0OBBYEFMMlpXIY5UIB
xN4VCH07rcCgpqUsMFsGA1UdIwRUMFKAFExRzT1kSkZM3zh+48WXIZVXsYFkoSSk
IjAgMR4wHAYDVQQDDBVnZGYtZGV2LWNsaWVudC12cG4tY2GCFDgSrPj/l0NqMk2u
iwVZAP18pPPbMBMGA1UdJQQMMAoGCCsGAQUFBwMCMAsGA1UdDwQEAwIHgDANBgkq
hkiG9w0BAQsFAAOCAQEALbxgxVh8P/E0miLbsy28dF8BKF5gCGSwHNBRSsEc4dDM
HwofuYaiZxCat/UDyLFZ8XdKOXgTSdgu7+VYQ4YIOzPMnx/rVWY+Zv4RVItBQj00
IvJeoz+07p3UQv0knQaaF31vvk/QoaY62ShSanXL50HA4pfLG/iLiju1DIYiMRbC
XF8WOgvHeXUIoswA1lPiXyUSJWA7Z7Ig5hI5YX86JSEZvzXQoq8L05q2AdcI7KsT
8dVoDgWxMModUS4DxS1zhlMKVlpcDxfyGk6z+CJrPJWbEgTNrEZ3jUwgNCphkROH
lk5b/pRDev+lBkC94vaHZhovrl5b1CbOVr3pqUWG/Q==
-----END CERTIFICATE-----
