Certificate:
    Data:
        Version: 3 (0x2)
        Serial Number:
            d6:e9:9b:df:ea:4e:6d:ef:45:0d:dd:8a:46:6e:a0:46
        Signature Algorithm: sha256WithRSAEncryption
        Issuer: CN=gdf-dev-client-vpn-ca
        Validity
            Not Before: Feb 12 16:35:39 2026 GMT
            Not After : May 17 16:35:39 2028 GMT
        Subject: CN=gdf-dev-client-vpn-server
        Subject Public Key Info:
            Public Key Algorithm: rsaEncryption
                Public-Key: (2048 bit)
                Modulus:
                    00:d3:75:6c:3e:18:23:5f:f6:25:aa:71:ee:b0:f8:
                    54:a1:bb:fb:dc:d7:26:b0:a1:95:cc:cd:dc:87:40:
                    7d:c0:e5:01:88:aa:52:cc:1b:47:e3:97:a0:88:92:
                    42:6a:fb:05:52:c0:4a:31:9c:f9:eb:01:18:5a:87:
                    07:8d:93:9a:17:35:34:a2:83:df:4c:da:fc:1b:1c:
                    94:77:f2:00:78:3c:ed:c5:5f:92:5b:a9:76:a9:da:
                    40:46:68:b9:26:50:7f:8f:60:96:2a:90:39:ff:c4:
                    3d:cd:bb:cb:da:ec:cd:74:c9:be:89:7f:b6:c1:77:
                    ba:34:e7:0d:40:78:7d:8a:4d:26:e2:6c:e6:00:2f:
                    39:8c:2c:eb:4c:87:a4:5f:c7:fc:c2:33:02:16:0a:
                    b7:d0:d7:d9:8e:33:96:4a:a1:92:35:d0:5a:ed:19:
                    2b:42:26:68:2d:f5:ef:27:fb:07:e4:9a:0a:f3:67:
                    81:0c:99:56:aa:8c:1c:da:8b:8d:68:ca:c2:48:14:
                    1f:25:32:11:87:08:ba:69:63:ff:da:b9:72:8e:a5:
                    03:b9:1a:45:77:85:08:82:3c:f5:27:e1:02:ca:38:
                    39:bc:7d:7b:0f:cc:52:32:be:a4:df:a2:0f:24:46:
                    b4:81:6c:4d:63:14:dd:e7:ed:56:36:e2:a0:ff:ba:
                    a5:c9
                Exponent: 65537 (0x10001)
        X509v3 extensions:
            X509v3 Basic Constraints: 
                CA:FALSE
            X509v3 Subject Key Identifier: 
                79:AA:94:40:00:88:51:2B:F1:6B:3E:59:F5:DF:E3:82:74:24:C1:7E
            X509v3 Authority Key Identifier: 
                keyid:4C:51:CD:3D:64:4A:46:4C:DF:38:7E:E3:C5:97:21:95:57:B1:81:64
                DirName:/CN=gdf-dev-client-vpn-ca
                serial:38:12:AC:F8:FF:97:43:6A:32:4D:AE:8B:05:59:00:FD:7C:A4:F3:DB
            X509v3 Extended Key Usage: 
                TLS Web Server Authentication
            X509v3 Key Usage: 
                Digital Signature, Key Encipherment
    Signature Algorithm: sha256WithRSAEncryption
    Signature Value:
        65:63:89:03:52:b2:5a:ec:08:da:03:4a:80:07:86:bf:39:96:
        4f:0a:44:0b:e1:19:1d:e4:ce:8d:c0:9e:32:00:9d:6a:45:d2:
        25:44:8c:b2:28:76:8e:11:7e:0f:43:9c:5f:8e:5b:5d:16:bf:
        28:38:cc:c3:6b:75:b5:d0:12:3a:f5:fd:b7:8f:18:80:55:e2:
        98:1b:c5:e7:3e:ef:a2:17:43:3e:35:26:a5:04:f5:ba:92:ea:
        94:49:38:f0:da:48:a1:96:f3:bb:5d:db:af:5f:80:8c:c0:52:
        72:e0:4a:a9:af:71:b9:f8:16:dd:8e:f0:69:f6:90:d7:f1:b0:
        90:ff:2b:ec:e0:23:60:1d:09:12:cf:76:7d:76:ae:81:a8:d5:
        2a:74:fe:ee:e4:ce:0b:0a:76:1c:91:ac:d2:ab:fa:9c:94:f0:
        05:b5:ce:d9:59:38:e2:0f:9c:ff:26:8c:4b:ce:ae:fa:20:de:
        6a:a1:b7:98:cb:4d:01:26:d8:51:32:2a:f0:c1:17:f5:9e:93:
        db:a4:90:41:80:90:0e:ec:40:9d:90:df:ec:99:27:38:07:9b:
        1a:84:68:e5:15:bc:39:cb:0b:e4:21:fd:b3:66:a0:2a:e5:5b:
        28:58:32:e1:29:56:30:12:f8:4a:2e:a1:38:5e:52:27:8d:82:
        36:51:db:6d
-----BEGIN CERTIFICATE-----
MIIDfDCCAmSgAwIBAgIRANbpm9/qTm3vRQ3dikZuoEYwDQYJKoZIhvcNAQELBQAw
IDEeMBwGA1UEAwwVZ2RmLWRldi1jbGllbnQtdnBuLWNhMB4XDTI2MDIxMjE2MzUz
OVoXDTI4MDUxNzE2MzUzOVowJDEiMCAGA1UEAwwZZ2RmLWRldi1jbGllbnQtdnBu
LXNlcnZlcjCCASIwDQYJKoZIhvcNAQEBBQADggEPADCCAQoCggEBANN1bD4YI1/2
Japx7rD4VKG7+9zXJrChlczN3IdAfcDlAYiqUswbR+OXoIiSQmr7BVLASjGc+esB
GFqHB42Tmhc1NKKD30za/BsclHfyAHg87cVfklupdqnaQEZouSZQf49gliqQOf/E
Pc27y9rszXTJvol/tsF3ujTnDUB4fYpNJuJs5gAvOYws60yHpF/H/MIzAhYKt9DX
2Y4zlkqhkjXQWu0ZK0ImaC317yf7B+SaCvNngQyZVqqMHNqLjWjKwkgUHyUyEYcI
umlj/9q5co6lA7kaRXeFCII89SfhAso4Obx9ew/MUjK+pN+iDyRGtIFsTWMU3eft
VjbioP+6pckCAwEAAaOBrDCBqTAJBgNVHRMEAjAAMB0GA1UdDgQWBBR5qpRAAIhR
K/FrPln13+OCdCTBfjBbBgNVHSMEVDBSgBRMUc09ZEpGTN84fuPFlyGVV7GBZKEk
pCIwIDEeMBwGA1UEAwwVZ2RmLWRldi1jbGllbnQtdnBuLWNhghQ4Eqz4/5dDajJN
rosFWQD9fKTz2zATBgNVHSUEDDAKBggrBgEFBQcDATALBgNVHQ8EBAMCBaAwDQYJ
KoZIhvcNAQELBQADggEBAGVjiQNSslrsCNoDSoAHhr85lk8KRAvhGR3kzo3AnjIA
nWpF0iVEjLIodo4Rfg9DnF+OW10Wvyg4zMNrdbXQEjr1/bePGIBV4pgbxec+76IX
Qz41JqUE9bqS6pRJOPDaSKGW87td269fgIzAUnLgSqmvcbn4Ft2O8Gn2kNfxsJD/
K+zgI2AdCRLPdn12roGo1Sp0/u7kzgsKdhyRrNKr+pyU8AW1ztlZOOIPnP8mjEvO
rvog3mqht5jLTQEm2FEyKvDBF/Wek9ukkEGAkA7sQJ2Q3+yZJzgHmxqEaOUVvDnL
C+Qh/bNmoCrlWyhYMuEpVjAS+EouoTheUieNgjZR220=
-----END CERTIFICATE-----
